target datalayout = "e-m:e-p270:32:32-p271:32:32-p272:64:64-i64:64-i128:128-f80:128-n8:16:32:64-S128"
target triple = "x86_64-pc-linux-gnu"

%"class.boost::urls::detail::path_ref" = type { ptr, ptr, i64, i64, i64 }
%"class.boost::urls::url_view_base" = type { [8 x i8], %"struct.boost::urls::detail::url_impl", ptr }
%"struct.boost::urls::detail::url_impl" = type <{ ptr, [8 x i64], [7 x i64], i64, i64, [16 x i8], i16, [2 x i8], i32, i16, i8, [5 x i8] }>
%"class.boost::urls::segments_encoded_ref" = type { %"class.boost::urls::segments_encoded_base", ptr }
%"class.boost::urls::segments_encoded_base" = type { %"class.boost::urls::detail::path_ref" }

; Function Attrs: mustprogress nounwind uwtable
define hidden void @_ZN5boost4urls20segments_encoded_refC2ERNS0_8url_baseE(ptr noundef nonnull align 8 dereferenceable(48) %0, ptr noundef nonnull align 8 dereferenceable(216) %1) unnamed_addr #2 align 2 {
  %3 = alloca ptr, align 8
  %4 = alloca ptr, align 8
  %5 = alloca %"class.boost::urls::detail::path_ref", align 8
  store ptr %0, ptr %3, align 8, !tbaa !3
  store ptr %1, ptr %4, align 8, !tbaa !3
  %6 = load ptr, ptr %3, align 8
  call void @llvm.lifetime.start.p0(i64 40, ptr %5) #14
  %7 = load ptr, ptr %4, align 8, !tbaa !3
  %8 = getelementptr inbounds i8, ptr %7, i64 8
  %9 = getelementptr inbounds nuw %"class.boost::urls::url_view_base", ptr %8, i32 0, i32 1
  call void @_ZN5boost4urls6detail8path_refC1ERKNS1_8url_implE(ptr noundef nonnull align 8 dereferenceable(40) %5, ptr noundef nonnull align 8 dereferenceable(171) %9) #14
  call void @_ZN5boost4urls21segments_encoded_baseC2ERKNS0_6detail8path_refE(ptr noundef nonnull align 8 dereferenceable(40) %6, ptr noundef nonnull align 8 dereferenceable(40) %5) #14
  call void @llvm.lifetime.end.p0(i64 40, ptr %5) #14
  %10 = getelementptr inbounds nuw %"class.boost::urls::segments_encoded_ref", ptr %6, i32 0, i32 1
  %11 = load ptr, ptr %4, align 8, !tbaa !3
  store ptr %11, ptr %10, align 8, !tbaa !7
  ret void
}